
benchmark:     file format elf64-littleriscv


Disassembly of section .text:

00000000000100b0 <_start>:
   100b0:	00007197          	auipc	gp,0x7
   100b4:	31818193          	addi	gp,gp,792 # 173c8 <__global_pointer$>
   100b8:	81818513          	addi	a0,gp,-2024 # 16be0 <_edata>
   100bc:	00008617          	auipc	a2,0x8
   100c0:	efc60613          	addi	a2,a2,-260 # 17fb8 <_end>
   100c4:	8e09                	sub	a2,a2,a0
   100c6:	4581                	li	a1,0
   100c8:	61a000ef          	jal	ra,106e2 <memset>
   100cc:	00000517          	auipc	a0,0x0
   100d0:	56050513          	addi	a0,a0,1376 # 1062c <__libc_fini_array>
   100d4:	00000097          	auipc	ra,0x0
   100d8:	524080e7          	jalr	1316(ra) # 105f8 <atexit>
   100dc:	00000097          	auipc	ra,0x0
   100e0:	59e080e7          	jalr	1438(ra) # 1067a <__libc_init_array>
   100e4:	4502                	lw	a0,0(sp)
   100e6:	002c                	addi	a1,sp,8
   100e8:	4601                	li	a2,0
   100ea:	00000097          	auipc	ra,0x0
   100ee:	4f0080e7          	jalr	1264(ra) # 105da <main>
   100f2:	00000317          	auipc	t1,0x0
   100f6:	51430067          	jr	1300(t1) # 10606 <exit>

00000000000100fa <_fini>:
   100fa:	8082                	ret

00000000000100fc <deregister_tm_clones>:
   100fc:	655d                	lui	a0,0x17
   100fe:	67dd                	lui	a5,0x17
   10100:	bc850713          	addi	a4,a0,-1080 # 16bc8 <__TMC_END__>
   10104:	bc878793          	addi	a5,a5,-1080 # 16bc8 <__TMC_END__>
   10108:	00e78b63          	beq	a5,a4,1011e <deregister_tm_clones+0x22>
   1010c:	00000337          	lui	t1,0x0
   10110:	00030313          	mv	t1,t1
   10114:	00030563          	beqz	t1,1011e <deregister_tm_clones+0x22>
   10118:	bc850513          	addi	a0,a0,-1080
   1011c:	8302                	jr	t1
   1011e:	8082                	ret

0000000000010120 <register_tm_clones>:
   10120:	67dd                	lui	a5,0x17
   10122:	655d                	lui	a0,0x17
   10124:	bc878593          	addi	a1,a5,-1080 # 16bc8 <__TMC_END__>
   10128:	bc850793          	addi	a5,a0,-1080 # 16bc8 <__TMC_END__>
   1012c:	8d9d                	sub	a1,a1,a5
   1012e:	858d                	srai	a1,a1,0x3
   10130:	4789                	li	a5,2
   10132:	02f5c5b3          	div	a1,a1,a5
   10136:	c991                	beqz	a1,1014a <register_tm_clones+0x2a>
   10138:	00000337          	lui	t1,0x0
   1013c:	00030313          	mv	t1,t1
   10140:	00030563          	beqz	t1,1014a <register_tm_clones+0x2a>
   10144:	bc850513          	addi	a0,a0,-1080
   10148:	8302                	jr	t1
   1014a:	8082                	ret

000000000001014c <__do_global_dtors_aux>:
   1014c:	8201c703          	lbu	a4,-2016(gp) # 16be8 <completed.5184>
   10150:	eb15                	bnez	a4,10184 <__do_global_dtors_aux+0x38>
   10152:	1141                	addi	sp,sp,-16
   10154:	e022                	sd	s0,0(sp)
   10156:	e406                	sd	ra,8(sp)
   10158:	843e                	mv	s0,a5
   1015a:	fa3ff0ef          	jal	ra,100fc <deregister_tm_clones>
   1015e:	000007b7          	lui	a5,0x0
   10162:	00078793          	mv	a5,a5
   10166:	cb81                	beqz	a5,10176 <__do_global_dtors_aux+0x2a>
   10168:	6545                	lui	a0,0x11
   1016a:	cb850513          	addi	a0,a0,-840 # 10cb8 <__EH_FRAME_BEGIN__>
   1016e:	ffff0097          	auipc	ra,0xffff0
   10172:	e92080e7          	jalr	-366(ra) # 0 <_start-0x100b0>
   10176:	4785                	li	a5,1
   10178:	82f18023          	sb	a5,-2016(gp) # 16be8 <completed.5184>
   1017c:	60a2                	ld	ra,8(sp)
   1017e:	6402                	ld	s0,0(sp)
   10180:	0141                	addi	sp,sp,16
   10182:	8082                	ret
   10184:	8082                	ret

0000000000010186 <frame_dummy>:
   10186:	000007b7          	lui	a5,0x0
   1018a:	00078793          	mv	a5,a5
   1018e:	cf99                	beqz	a5,101ac <frame_dummy+0x26>
   10190:	65dd                	lui	a1,0x17
   10192:	6545                	lui	a0,0x11
   10194:	1141                	addi	sp,sp,-16
   10196:	bf058593          	addi	a1,a1,-1040 # 16bf0 <object.5189>
   1019a:	cb850513          	addi	a0,a0,-840 # 10cb8 <__EH_FRAME_BEGIN__>
   1019e:	e406                	sd	ra,8(sp)
   101a0:	ffff0097          	auipc	ra,0xffff0
   101a4:	e60080e7          	jalr	-416(ra) # 0 <_start-0x100b0>
   101a8:	60a2                	ld	ra,8(sp)
   101aa:	0141                	addi	sp,sp,16
   101ac:	f75ff06f          	j	10120 <register_tm_clones>

00000000000101b0 <_Z4swapPxS_>:
   101b0:	7179                	addi	sp,sp,-48
   101b2:	f422                	sd	s0,40(sp)
   101b4:	1800                	addi	s0,sp,48
   101b6:	fca43c23          	sd	a0,-40(s0)
   101ba:	fcb43823          	sd	a1,-48(s0)
   101be:	fd843783          	ld	a5,-40(s0)
   101c2:	639c                	ld	a5,0(a5)
   101c4:	fef43423          	sd	a5,-24(s0)
   101c8:	fd043783          	ld	a5,-48(s0)
   101cc:	6398                	ld	a4,0(a5)
   101ce:	fd843783          	ld	a5,-40(s0)
   101d2:	e398                	sd	a4,0(a5)
   101d4:	fd043783          	ld	a5,-48(s0)
   101d8:	fe843703          	ld	a4,-24(s0)
   101dc:	e398                	sd	a4,0(a5)
   101de:	0001                	nop
   101e0:	7422                	ld	s0,40(sp)
   101e2:	6145                	addi	sp,sp,48
   101e4:	8082                	ret

00000000000101e6 <_Z9partationiii>:
   101e6:	7179                	addi	sp,sp,-48
   101e8:	f406                	sd	ra,40(sp)
   101ea:	f022                	sd	s0,32(sp)
   101ec:	1800                	addi	s0,sp,48
   101ee:	87aa                	mv	a5,a0
   101f0:	86ae                	mv	a3,a1
   101f2:	8732                	mv	a4,a2
   101f4:	fcf42e23          	sw	a5,-36(s0)
   101f8:	87b6                	mv	a5,a3
   101fa:	fcf42c23          	sw	a5,-40(s0)
   101fe:	87ba                	mv	a5,a4
   10200:	fcf42a23          	sw	a5,-44(s0)
   10204:	fd842703          	lw	a4,-40(s0)
   10208:	fdc42783          	lw	a5,-36(s0)
   1020c:	2701                	sext.w	a4,a4
   1020e:	2781                	sext.w	a5,a5
   10210:	00e7c463          	blt	a5,a4,10218 <_Z9partationiii+0x32>
   10214:	57fd                	li	a5,-1
   10216:	a8c5                	j	10306 <_Z9partationiii+0x120>
   10218:	67c9                	lui	a5,0x12
   1021a:	fd442703          	lw	a4,-44(s0)
   1021e:	070e                	slli	a4,a4,0x3
   10220:	e3078793          	addi	a5,a5,-464 # 11e30 <__fini_array_end>
   10224:	97ba                	add	a5,a5,a4
   10226:	639c                	ld	a5,0(a5)
   10228:	fef43023          	sd	a5,-32(s0)
   1022c:	fdc42783          	lw	a5,-36(s0)
   10230:	fef43423          	sd	a5,-24(s0)
   10234:	fd442783          	lw	a5,-44(s0)
   10238:	00379713          	slli	a4,a5,0x3
   1023c:	67c9                	lui	a5,0x12
   1023e:	e3078793          	addi	a5,a5,-464 # 11e30 <__fini_array_end>
   10242:	00f706b3          	add	a3,a4,a5
   10246:	fd842783          	lw	a5,-40(s0)
   1024a:	00379713          	slli	a4,a5,0x3
   1024e:	67c9                	lui	a5,0x12
   10250:	e3078793          	addi	a5,a5,-464 # 11e30 <__fini_array_end>
   10254:	97ba                	add	a5,a5,a4
   10256:	85be                	mv	a1,a5
   10258:	8536                	mv	a0,a3
   1025a:	00000097          	auipc	ra,0x0
   1025e:	f56080e7          	jalr	-170(ra) # 101b0 <_Z4swapPxS_>
   10262:	fd842783          	lw	a5,-40(s0)
   10266:	37fd                	addiw	a5,a5,-1
   10268:	0007871b          	sext.w	a4,a5
   1026c:	fdc42783          	lw	a5,-36(s0)
   10270:	2781                	sext.w	a5,a5
   10272:	06e78063          	beq	a5,a4,102d2 <_Z9partationiii+0xec>
   10276:	67c9                	lui	a5,0x12
   10278:	fdc42703          	lw	a4,-36(s0)
   1027c:	070e                	slli	a4,a4,0x3
   1027e:	e3078793          	addi	a5,a5,-464 # 11e30 <__fini_array_end>
   10282:	97ba                	add	a5,a5,a4
   10284:	639c                	ld	a5,0(a5)
   10286:	fe043703          	ld	a4,-32(s0)
   1028a:	02f74e63          	blt	a4,a5,102c6 <_Z9partationiii+0xe0>
   1028e:	fdc42783          	lw	a5,-36(s0)
   10292:	00379713          	slli	a4,a5,0x3
   10296:	67c9                	lui	a5,0x12
   10298:	e3078793          	addi	a5,a5,-464 # 11e30 <__fini_array_end>
   1029c:	00f706b3          	add	a3,a4,a5
   102a0:	fe843783          	ld	a5,-24(s0)
   102a4:	00379713          	slli	a4,a5,0x3
   102a8:	67c9                	lui	a5,0x12
   102aa:	e3078793          	addi	a5,a5,-464 # 11e30 <__fini_array_end>
   102ae:	97ba                	add	a5,a5,a4
   102b0:	85be                	mv	a1,a5
   102b2:	8536                	mv	a0,a3
   102b4:	00000097          	auipc	ra,0x0
   102b8:	efc080e7          	jalr	-260(ra) # 101b0 <_Z4swapPxS_>
   102bc:	fe843783          	ld	a5,-24(s0)
   102c0:	0785                	addi	a5,a5,1
   102c2:	fef43423          	sd	a5,-24(s0)
   102c6:	fdc42783          	lw	a5,-36(s0)
   102ca:	2785                	addiw	a5,a5,1
   102cc:	fcf42e23          	sw	a5,-36(s0)
   102d0:	bf49                	j	10262 <_Z9partationiii+0x7c>
   102d2:	fe843783          	ld	a5,-24(s0)
   102d6:	00379713          	slli	a4,a5,0x3
   102da:	67c9                	lui	a5,0x12
   102dc:	e3078793          	addi	a5,a5,-464 # 11e30 <__fini_array_end>
   102e0:	00f706b3          	add	a3,a4,a5
   102e4:	fd842783          	lw	a5,-40(s0)
   102e8:	00379713          	slli	a4,a5,0x3
   102ec:	67c9                	lui	a5,0x12
   102ee:	e3078793          	addi	a5,a5,-464 # 11e30 <__fini_array_end>
   102f2:	97ba                	add	a5,a5,a4
   102f4:	85be                	mv	a1,a5
   102f6:	8536                	mv	a0,a3
   102f8:	00000097          	auipc	ra,0x0
   102fc:	eb8080e7          	jalr	-328(ra) # 101b0 <_Z4swapPxS_>
   10300:	fe843783          	ld	a5,-24(s0)
   10304:	2781                	sext.w	a5,a5
   10306:	853e                	mv	a0,a5
   10308:	70a2                	ld	ra,40(sp)
   1030a:	7402                	ld	s0,32(sp)
   1030c:	6145                	addi	sp,sp,48
   1030e:	8082                	ret

0000000000010310 <_Z9quicksortii>:
   10310:	7179                	addi	sp,sp,-48
   10312:	f406                	sd	ra,40(sp)
   10314:	f022                	sd	s0,32(sp)
   10316:	1800                	addi	s0,sp,48
   10318:	87aa                	mv	a5,a0
   1031a:	872e                	mv	a4,a1
   1031c:	fcf42e23          	sw	a5,-36(s0)
   10320:	87ba                	mv	a5,a4
   10322:	fcf42c23          	sw	a5,-40(s0)
   10326:	fd842703          	lw	a4,-40(s0)
   1032a:	fdc42783          	lw	a5,-36(s0)
   1032e:	2701                	sext.w	a4,a4
   10330:	2781                	sext.w	a5,a5
   10332:	06e7dc63          	ble	a4,a5,103aa <_Z9quicksortii+0x9a>
   10336:	fdc42703          	lw	a4,-36(s0)
   1033a:	fd842783          	lw	a5,-40(s0)
   1033e:	9fb9                	addw	a5,a5,a4
   10340:	2781                	sext.w	a5,a5
   10342:	01f7d71b          	srliw	a4,a5,0x1f
   10346:	9fb9                	addw	a5,a5,a4
   10348:	4017d79b          	sraiw	a5,a5,0x1
   1034c:	fef42623          	sw	a5,-20(s0)
   10350:	fec42683          	lw	a3,-20(s0)
   10354:	fd842703          	lw	a4,-40(s0)
   10358:	fdc42783          	lw	a5,-36(s0)
   1035c:	8636                	mv	a2,a3
   1035e:	85ba                	mv	a1,a4
   10360:	853e                	mv	a0,a5
   10362:	00000097          	auipc	ra,0x0
   10366:	e84080e7          	jalr	-380(ra) # 101e6 <_Z9partationiii>
   1036a:	87aa                	mv	a5,a0
   1036c:	fef42623          	sw	a5,-20(s0)
   10370:	fec42783          	lw	a5,-20(s0)
   10374:	0007871b          	sext.w	a4,a5
   10378:	57fd                	li	a5,-1
   1037a:	02f70963          	beq	a4,a5,103ac <_Z9quicksortii+0x9c>
   1037e:	fec42783          	lw	a5,-20(s0)
   10382:	37fd                	addiw	a5,a5,-1
   10384:	0007871b          	sext.w	a4,a5
   10388:	fdc42783          	lw	a5,-36(s0)
   1038c:	85ba                	mv	a1,a4
   1038e:	853e                	mv	a0,a5
   10390:	f81ff0ef          	jal	ra,10310 <_Z9quicksortii>
   10394:	fec42783          	lw	a5,-20(s0)
   10398:	2785                	addiw	a5,a5,1
   1039a:	2781                	sext.w	a5,a5
   1039c:	fd842703          	lw	a4,-40(s0)
   103a0:	85ba                	mv	a1,a4
   103a2:	853e                	mv	a0,a5
   103a4:	f6dff0ef          	jal	ra,10310 <_Z9quicksortii>
   103a8:	a011                	j	103ac <_Z9quicksortii+0x9c>
   103aa:	0001                	nop
   103ac:	70a2                	ld	ra,40(sp)
   103ae:	7402                	ld	s0,32(sp)
   103b0:	6145                	addi	sp,sp,48
   103b2:	8082                	ret

00000000000103b4 <_Z8ackermanii>:
   103b4:	1101                	addi	sp,sp,-32
   103b6:	ec06                	sd	ra,24(sp)
   103b8:	e822                	sd	s0,16(sp)
   103ba:	1000                	addi	s0,sp,32
   103bc:	87aa                	mv	a5,a0
   103be:	872e                	mv	a4,a1
   103c0:	fef42623          	sw	a5,-20(s0)
   103c4:	87ba                	mv	a5,a4
   103c6:	fef42423          	sw	a5,-24(s0)
   103ca:	fec42783          	lw	a5,-20(s0)
   103ce:	2781                	sext.w	a5,a5
   103d0:	02f05d63          	blez	a5,1040a <_Z8ackermanii+0x56>
   103d4:	fe842783          	lw	a5,-24(s0)
   103d8:	2781                	sext.w	a5,a5
   103da:	e789                	bnez	a5,103e4 <_Z8ackermanii+0x30>
   103dc:	4785                	li	a5,1
   103de:	fef42423          	sw	a5,-24(s0)
   103e2:	a839                	j	10400 <_Z8ackermanii+0x4c>
   103e4:	fe842783          	lw	a5,-24(s0)
   103e8:	37fd                	addiw	a5,a5,-1
   103ea:	0007871b          	sext.w	a4,a5
   103ee:	fec42783          	lw	a5,-20(s0)
   103f2:	85ba                	mv	a1,a4
   103f4:	853e                	mv	a0,a5
   103f6:	fbfff0ef          	jal	ra,103b4 <_Z8ackermanii>
   103fa:	87aa                	mv	a5,a0
   103fc:	fef42423          	sw	a5,-24(s0)
   10400:	fec42783          	lw	a5,-20(s0)
   10404:	37fd                	addiw	a5,a5,-1
   10406:	fef42623          	sw	a5,-20(s0)
   1040a:	fe842783          	lw	a5,-24(s0)
   1040e:	2785                	addiw	a5,a5,1
   10410:	2781                	sext.w	a5,a5
   10412:	853e                	mv	a0,a5
   10414:	60e2                	ld	ra,24(sp)
   10416:	6442                	ld	s0,16(sp)
   10418:	6105                	addi	sp,sp,32
   1041a:	8082                	ret

000000000001041c <_Z9QuickSortv>:
   1041c:	1141                	addi	sp,sp,-16
   1041e:	e406                	sd	ra,8(sp)
   10420:	e022                	sd	s0,0(sp)
   10422:	0800                	addi	s0,sp,16
   10424:	3e700593          	li	a1,999
   10428:	4501                	li	a0,0
   1042a:	ee7ff0ef          	jal	ra,10310 <_Z9quicksortii>
   1042e:	0001                	nop
   10430:	60a2                	ld	ra,8(sp)
   10432:	6402                	ld	s0,0(sp)
   10434:	0141                	addi	sp,sp,16
   10436:	8082                	ret

0000000000010438 <_Z20MatrixMultiplicationv>:
   10438:	7179                	addi	sp,sp,-48
   1043a:	f422                	sd	s0,40(sp)
   1043c:	1800                	addi	s0,sp,48
   1043e:	fe042623          	sw	zero,-20(s0)
   10442:	fec42783          	lw	a5,-20(s0)
   10446:	0007871b          	sext.w	a4,a5
   1044a:	47e1                	li	a5,24
   1044c:	04e7c963          	blt	a5,a4,1049e <_Z20MatrixMultiplicationv+0x66>
   10450:	fe042423          	sw	zero,-24(s0)
   10454:	fe842783          	lw	a5,-24(s0)
   10458:	0007871b          	sext.w	a4,a5
   1045c:	47e1                	li	a5,24
   1045e:	02e7ca63          	blt	a5,a4,10492 <_Z20MatrixMultiplicationv+0x5a>
   10462:	66dd                	lui	a3,0x17
   10464:	fe842603          	lw	a2,-24(s0)
   10468:	fec42703          	lw	a4,-20(s0)
   1046c:	87ba                	mv	a5,a4
   1046e:	0786                	slli	a5,a5,0x1
   10470:	97ba                	add	a5,a5,a4
   10472:	078e                	slli	a5,a5,0x3
   10474:	97ba                	add	a5,a5,a4
   10476:	97b2                	add	a5,a5,a2
   10478:	00379713          	slli	a4,a5,0x3
   1047c:	c2068793          	addi	a5,a3,-992 # 16c20 <d>
   10480:	97ba                	add	a5,a5,a4
   10482:	0007b023          	sd	zero,0(a5)
   10486:	fe842783          	lw	a5,-24(s0)
   1048a:	2785                	addiw	a5,a5,1
   1048c:	fef42423          	sw	a5,-24(s0)
   10490:	b7d1                	j	10454 <_Z20MatrixMultiplicationv+0x1c>
   10492:	fec42783          	lw	a5,-20(s0)
   10496:	2785                	addiw	a5,a5,1
   10498:	fef42623          	sw	a5,-20(s0)
   1049c:	b75d                	j	10442 <_Z20MatrixMultiplicationv+0xa>
   1049e:	fe042223          	sw	zero,-28(s0)
   104a2:	fe442783          	lw	a5,-28(s0)
   104a6:	0007871b          	sext.w	a4,a5
   104aa:	47e1                	li	a5,24
   104ac:	0ee7c163          	blt	a5,a4,1058e <_Z20MatrixMultiplicationv+0x156>
   104b0:	fe042023          	sw	zero,-32(s0)
   104b4:	fe042783          	lw	a5,-32(s0)
   104b8:	0007871b          	sext.w	a4,a5
   104bc:	47e1                	li	a5,24
   104be:	0ce7c263          	blt	a5,a4,10582 <_Z20MatrixMultiplicationv+0x14a>
   104c2:	66d1                	lui	a3,0x14
   104c4:	fe042603          	lw	a2,-32(s0)
   104c8:	fe442703          	lw	a4,-28(s0)
   104cc:	87ba                	mv	a5,a4
   104ce:	0786                	slli	a5,a5,0x1
   104d0:	97ba                	add	a5,a5,a4
   104d2:	078e                	slli	a5,a5,0x3
   104d4:	97ba                	add	a5,a5,a4
   104d6:	97b2                	add	a5,a5,a2
   104d8:	00379713          	slli	a4,a5,0x3
   104dc:	d7068793          	addi	a5,a3,-656 # 13d70 <b>
   104e0:	97ba                	add	a5,a5,a4
   104e2:	639c                	ld	a5,0(a5)
   104e4:	fcf43823          	sd	a5,-48(s0)
   104e8:	fc042e23          	sw	zero,-36(s0)
   104ec:	fdc42783          	lw	a5,-36(s0)
   104f0:	0007871b          	sext.w	a4,a5
   104f4:	47e1                	li	a5,24
   104f6:	08e7c063          	blt	a5,a4,10576 <_Z20MatrixMultiplicationv+0x13e>
   104fa:	66dd                	lui	a3,0x17
   104fc:	fdc42603          	lw	a2,-36(s0)
   10500:	fe442703          	lw	a4,-28(s0)
   10504:	87ba                	mv	a5,a4
   10506:	0786                	slli	a5,a5,0x1
   10508:	97ba                	add	a5,a5,a4
   1050a:	078e                	slli	a5,a5,0x3
   1050c:	97ba                	add	a5,a5,a4
   1050e:	97b2                	add	a5,a5,a2
   10510:	00379713          	slli	a4,a5,0x3
   10514:	c2068793          	addi	a5,a3,-992 # 16c20 <d>
   10518:	97ba                	add	a5,a5,a4
   1051a:	6394                	ld	a3,0(a5)
   1051c:	6655                	lui	a2,0x15
   1051e:	fdc42583          	lw	a1,-36(s0)
   10522:	fe442703          	lw	a4,-28(s0)
   10526:	87ba                	mv	a5,a4
   10528:	0786                	slli	a5,a5,0x1
   1052a:	97ba                	add	a5,a5,a4
   1052c:	078e                	slli	a5,a5,0x3
   1052e:	97ba                	add	a5,a5,a4
   10530:	97ae                	add	a5,a5,a1
   10532:	00379713          	slli	a4,a5,0x3
   10536:	0f860793          	addi	a5,a2,248 # 150f8 <c>
   1053a:	97ba                	add	a5,a5,a4
   1053c:	6398                	ld	a4,0(a5)
   1053e:	fd043783          	ld	a5,-48(s0)
   10542:	02f707b3          	mul	a5,a4,a5
   10546:	96be                	add	a3,a3,a5
   10548:	665d                	lui	a2,0x17
   1054a:	fdc42583          	lw	a1,-36(s0)
   1054e:	fe442703          	lw	a4,-28(s0)
   10552:	87ba                	mv	a5,a4
   10554:	0786                	slli	a5,a5,0x1
   10556:	97ba                	add	a5,a5,a4
   10558:	078e                	slli	a5,a5,0x3
   1055a:	97ba                	add	a5,a5,a4
   1055c:	97ae                	add	a5,a5,a1
   1055e:	00379713          	slli	a4,a5,0x3
   10562:	c2060793          	addi	a5,a2,-992 # 16c20 <d>
   10566:	97ba                	add	a5,a5,a4
   10568:	e394                	sd	a3,0(a5)
   1056a:	fdc42783          	lw	a5,-36(s0)
   1056e:	2785                	addiw	a5,a5,1
   10570:	fcf42e23          	sw	a5,-36(s0)
   10574:	bfa5                	j	104ec <_Z20MatrixMultiplicationv+0xb4>
   10576:	fe042783          	lw	a5,-32(s0)
   1057a:	2785                	addiw	a5,a5,1
   1057c:	fef42023          	sw	a5,-32(s0)
   10580:	bf15                	j	104b4 <_Z20MatrixMultiplicationv+0x7c>
   10582:	fe442783          	lw	a5,-28(s0)
   10586:	2785                	addiw	a5,a5,1
   10588:	fef42223          	sw	a5,-28(s0)
   1058c:	bf19                	j	104a2 <_Z20MatrixMultiplicationv+0x6a>
   1058e:	0001                	nop
   10590:	7422                	ld	s0,40(sp)
   10592:	6145                	addi	sp,sp,48
   10594:	8082                	ret

0000000000010596 <_Z8Ackermanv>:
   10596:	1141                	addi	sp,sp,-16
   10598:	e406                	sd	ra,8(sp)
   1059a:	e022                	sd	s0,0(sp)
   1059c:	0800                	addi	s0,sp,16
   1059e:	4599                	li	a1,6
   105a0:	450d                	li	a0,3
   105a2:	00000097          	auipc	ra,0x0
   105a6:	e12080e7          	jalr	-494(ra) # 103b4 <_Z8ackermanii>
   105aa:	0001                	nop
   105ac:	60a2                	ld	ra,8(sp)
   105ae:	6402                	ld	s0,0(sp)
   105b0:	0141                	addi	sp,sp,16
   105b2:	8082                	ret

00000000000105b4 <_Z12AllBenchmarkv>:
   105b4:	1141                	addi	sp,sp,-16
   105b6:	e406                	sd	ra,8(sp)
   105b8:	e022                	sd	s0,0(sp)
   105ba:	0800                	addi	s0,sp,16
   105bc:	00000097          	auipc	ra,0x0
   105c0:	e60080e7          	jalr	-416(ra) # 1041c <_Z9QuickSortv>
   105c4:	e75ff0ef          	jal	ra,10438 <_Z20MatrixMultiplicationv>
   105c8:	00000097          	auipc	ra,0x0
   105cc:	fce080e7          	jalr	-50(ra) # 10596 <_Z8Ackermanv>
   105d0:	0001                	nop
   105d2:	60a2                	ld	ra,8(sp)
   105d4:	6402                	ld	s0,0(sp)
   105d6:	0141                	addi	sp,sp,16
   105d8:	8082                	ret

00000000000105da <main>:
   105da:	1141                	addi	sp,sp,-16
   105dc:	e406                	sd	ra,8(sp)
   105de:	e022                	sd	s0,0(sp)
   105e0:	0800                	addi	s0,sp,16
   105e2:	00000097          	auipc	ra,0x0
   105e6:	fd2080e7          	jalr	-46(ra) # 105b4 <_Z12AllBenchmarkv>
   105ea:	4781                	li	a5,0
   105ec:	853e                	mv	a0,a5
   105ee:	60a2                	ld	ra,8(sp)
   105f0:	6402                	ld	s0,0(sp)
   105f2:	0141                	addi	sp,sp,16
   105f4:	8082                	ret
	...

00000000000105f8 <atexit>:
   105f8:	85aa                	mv	a1,a0
   105fa:	4681                	li	a3,0
   105fc:	4601                	li	a2,0
   105fe:	4501                	li	a0,0
   10600:	18c0006f          	j	1078c <__register_exitproc>
	...

0000000000010606 <exit>:
   10606:	1141                	addi	sp,sp,-16
   10608:	4581                	li	a1,0
   1060a:	e022                	sd	s0,0(sp)
   1060c:	e406                	sd	ra,8(sp)
   1060e:	842a                	mv	s0,a0
   10610:	1e4000ef          	jal	ra,107f4 <__call_exitprocs>
   10614:	67dd                	lui	a5,0x17
   10616:	bd07b503          	ld	a0,-1072(a5) # 16bd0 <_global_impure_ptr>
   1061a:	6d3c                	ld	a5,88(a0)
   1061c:	c391                	beqz	a5,10620 <exit+0x1a>
   1061e:	9782                	jalr	a5
   10620:	8522                	mv	a0,s0
   10622:	00000097          	auipc	ra,0x0
   10626:	670080e7          	jalr	1648(ra) # 10c92 <_exit>
	...

000000000001062c <__libc_fini_array>:
   1062c:	7179                	addi	sp,sp,-48
   1062e:	67c9                	lui	a5,0x12
   10630:	6749                	lui	a4,0x12
   10632:	f022                	sd	s0,32(sp)
   10634:	e2870713          	addi	a4,a4,-472 # 11e28 <__init_array_end>
   10638:	e3078413          	addi	s0,a5,-464 # 11e30 <__fini_array_end>
   1063c:	8c19                	sub	s0,s0,a4
   1063e:	ec26                	sd	s1,24(sp)
   10640:	e84a                	sd	s2,16(sp)
   10642:	e44e                	sd	s3,8(sp)
   10644:	f406                	sd	ra,40(sp)
   10646:	840d                	srai	s0,s0,0x3
   10648:	4481                	li	s1,0
   1064a:	e3078913          	addi	s2,a5,-464
   1064e:	59e1                	li	s3,-8
   10650:	00941c63          	bne	s0,s1,10668 <__libc_fini_array+0x3c>
   10654:	7402                	ld	s0,32(sp)
   10656:	70a2                	ld	ra,40(sp)
   10658:	64e2                	ld	s1,24(sp)
   1065a:	6942                	ld	s2,16(sp)
   1065c:	69a2                	ld	s3,8(sp)
   1065e:	6145                	addi	sp,sp,48
   10660:	00000317          	auipc	t1,0x0
   10664:	a9a30067          	jr	-1382(t1) # 100fa <_fini>
   10668:	033487b3          	mul	a5,s1,s3
   1066c:	0485                	addi	s1,s1,1
   1066e:	97ca                	add	a5,a5,s2
   10670:	ff87b783          	ld	a5,-8(a5)
   10674:	9782                	jalr	a5
   10676:	bfe9                	j	10650 <__libc_fini_array+0x24>
	...

000000000001067a <__libc_init_array>:
   1067a:	1101                	addi	sp,sp,-32
   1067c:	e822                	sd	s0,16(sp)
   1067e:	e426                	sd	s1,8(sp)
   10680:	6449                	lui	s0,0x12
   10682:	64c9                	lui	s1,0x12
   10684:	e1c48793          	addi	a5,s1,-484 # 11e1c <__preinit_array_end>
   10688:	e1c40413          	addi	s0,s0,-484 # 11e1c <__preinit_array_end>
   1068c:	8c1d                	sub	s0,s0,a5
   1068e:	e04a                	sd	s2,0(sp)
   10690:	ec06                	sd	ra,24(sp)
   10692:	840d                	srai	s0,s0,0x3
   10694:	e1c48493          	addi	s1,s1,-484
   10698:	4901                	li	s2,0
   1069a:	02891963          	bne	s2,s0,106cc <__libc_init_array+0x52>
   1069e:	64c9                	lui	s1,0x12
   106a0:	00000097          	auipc	ra,0x0
   106a4:	a5a080e7          	jalr	-1446(ra) # 100fa <_fini>
   106a8:	6449                	lui	s0,0x12
   106aa:	e2048793          	addi	a5,s1,-480 # 11e20 <__frame_dummy_init_array_entry>
   106ae:	e2840413          	addi	s0,s0,-472 # 11e28 <__init_array_end>
   106b2:	8c1d                	sub	s0,s0,a5
   106b4:	840d                	srai	s0,s0,0x3
   106b6:	e2048493          	addi	s1,s1,-480
   106ba:	4901                	li	s2,0
   106bc:	00891d63          	bne	s2,s0,106d6 <__libc_init_array+0x5c>
   106c0:	60e2                	ld	ra,24(sp)
   106c2:	6442                	ld	s0,16(sp)
   106c4:	64a2                	ld	s1,8(sp)
   106c6:	6902                	ld	s2,0(sp)
   106c8:	6105                	addi	sp,sp,32
   106ca:	8082                	ret
   106cc:	609c                	ld	a5,0(s1)
   106ce:	0905                	addi	s2,s2,1
   106d0:	04a1                	addi	s1,s1,8
   106d2:	9782                	jalr	a5
   106d4:	b7d9                	j	1069a <__libc_init_array+0x20>
   106d6:	609c                	ld	a5,0(s1)
   106d8:	0905                	addi	s2,s2,1
   106da:	04a1                	addi	s1,s1,8
   106dc:	9782                	jalr	a5
   106de:	bff9                	j	106bc <__libc_init_array+0x42>
	...

00000000000106e2 <memset>:
   106e2:	483d                	li	a6,15
   106e4:	872a                	mv	a4,a0
   106e6:	02c87163          	bleu	a2,a6,10708 <memset+0x26>
   106ea:	00f77793          	andi	a5,a4,15
   106ee:	e3c1                	bnez	a5,1076e <memset+0x8c>
   106f0:	e1bd                	bnez	a1,10756 <memset+0x74>
   106f2:	ff067693          	andi	a3,a2,-16
   106f6:	8a3d                	andi	a2,a2,15
   106f8:	96ba                	add	a3,a3,a4
   106fa:	e30c                	sd	a1,0(a4)
   106fc:	e70c                	sd	a1,8(a4)
   106fe:	0741                	addi	a4,a4,16
   10700:	fed76de3          	bltu	a4,a3,106fa <memset+0x18>
   10704:	e211                	bnez	a2,10708 <memset+0x26>
   10706:	8082                	ret
   10708:	40c806b3          	sub	a3,a6,a2
   1070c:	068a                	slli	a3,a3,0x2
   1070e:	00000297          	auipc	t0,0x0
   10712:	9696                	add	a3,a3,t0
   10714:	00a68067          	jr	10(a3)
   10718:	00b70723          	sb	a1,14(a4)
   1071c:	00b706a3          	sb	a1,13(a4)
   10720:	00b70623          	sb	a1,12(a4)
   10724:	00b705a3          	sb	a1,11(a4)
   10728:	00b70523          	sb	a1,10(a4)
   1072c:	00b704a3          	sb	a1,9(a4)
   10730:	00b70423          	sb	a1,8(a4)
   10734:	00b703a3          	sb	a1,7(a4)
   10738:	00b70323          	sb	a1,6(a4)
   1073c:	00b702a3          	sb	a1,5(a4)
   10740:	00b70223          	sb	a1,4(a4)
   10744:	00b701a3          	sb	a1,3(a4)
   10748:	00b70123          	sb	a1,2(a4)
   1074c:	00b700a3          	sb	a1,1(a4)
   10750:	00b70023          	sb	a1,0(a4)
   10754:	8082                	ret
   10756:	0ff5f593          	andi	a1,a1,255
   1075a:	00859693          	slli	a3,a1,0x8
   1075e:	8dd5                	or	a1,a1,a3
   10760:	01059693          	slli	a3,a1,0x10
   10764:	8dd5                	or	a1,a1,a3
   10766:	02059693          	slli	a3,a1,0x20
   1076a:	8dd5                	or	a1,a1,a3
   1076c:	b759                	j	106f2 <memset+0x10>
   1076e:	00279693          	slli	a3,a5,0x2
   10772:	00000297          	auipc	t0,0x0
   10776:	9696                	add	a3,a3,t0
   10778:	8286                	mv	t0,ra
   1077a:	fa2680e7          	jalr	-94(a3)
   1077e:	8096                	mv	ra,t0
   10780:	17c1                	addi	a5,a5,-16
   10782:	8f1d                	sub	a4,a4,a5
   10784:	963e                	add	a2,a2,a5
   10786:	f8c871e3          	bleu	a2,a6,10708 <memset+0x26>
   1078a:	b79d                	j	106f0 <memset+0xe>

000000000001078c <__register_exitproc>:
   1078c:	67dd                	lui	a5,0x17
   1078e:	bd07b703          	ld	a4,-1072(a5) # 16bd0 <_global_impure_ptr>
   10792:	832a                	mv	t1,a0
   10794:	1f873783          	ld	a5,504(a4)
   10798:	e789                	bnez	a5,107a2 <__register_exitproc+0x16>
   1079a:	20070793          	addi	a5,a4,512
   1079e:	1ef73c23          	sd	a5,504(a4)
   107a2:	4798                	lw	a4,8(a5)
   107a4:	487d                	li	a6,31
   107a6:	557d                	li	a0,-1
   107a8:	04e84463          	blt	a6,a4,107f0 <__register_exitproc+0x64>
   107ac:	02030a63          	beqz	t1,107e0 <__register_exitproc+0x54>
   107b0:	00371813          	slli	a6,a4,0x3
   107b4:	983e                	add	a6,a6,a5
   107b6:	10c83823          	sd	a2,272(a6)
   107ba:	3107a883          	lw	a7,784(a5)
   107be:	4605                	li	a2,1
   107c0:	00e6163b          	sllw	a2,a2,a4
   107c4:	00c8e8b3          	or	a7,a7,a2
   107c8:	3117a823          	sw	a7,784(a5)
   107cc:	20d83823          	sd	a3,528(a6)
   107d0:	4689                	li	a3,2
   107d2:	00d31763          	bne	t1,a3,107e0 <__register_exitproc+0x54>
   107d6:	3147a683          	lw	a3,788(a5)
   107da:	8e55                	or	a2,a2,a3
   107dc:	30c7aa23          	sw	a2,788(a5)
   107e0:	0017069b          	addiw	a3,a4,1
   107e4:	0709                	addi	a4,a4,2
   107e6:	070e                	slli	a4,a4,0x3
   107e8:	c794                	sw	a3,8(a5)
   107ea:	97ba                	add	a5,a5,a4
   107ec:	e38c                	sd	a1,0(a5)
   107ee:	4501                	li	a0,0
   107f0:	8082                	ret
	...

00000000000107f4 <__call_exitprocs>:
   107f4:	715d                	addi	sp,sp,-80
   107f6:	67dd                	lui	a5,0x17
   107f8:	f44e                	sd	s3,40(sp)
   107fa:	bd07b983          	ld	s3,-1072(a5) # 16bd0 <_global_impure_ptr>
   107fe:	f052                	sd	s4,32(sp)
   10800:	ec56                	sd	s5,24(sp)
   10802:	e85a                	sd	s6,16(sp)
   10804:	e486                	sd	ra,72(sp)
   10806:	e0a2                	sd	s0,64(sp)
   10808:	fc26                	sd	s1,56(sp)
   1080a:	f84a                	sd	s2,48(sp)
   1080c:	e45e                	sd	s7,8(sp)
   1080e:	8aaa                	mv	s5,a0
   10810:	8a2e                	mv	s4,a1
   10812:	4b05                	li	s6,1
   10814:	1f89b403          	ld	s0,504(s3)
   10818:	c801                	beqz	s0,10828 <__call_exitprocs+0x34>
   1081a:	4404                	lw	s1,8(s0)
   1081c:	34fd                	addiw	s1,s1,-1
   1081e:	00349913          	slli	s2,s1,0x3
   10822:	9922                	add	s2,s2,s0
   10824:	0004dd63          	bgez	s1,1083e <__call_exitprocs+0x4a>
   10828:	60a6                	ld	ra,72(sp)
   1082a:	6406                	ld	s0,64(sp)
   1082c:	74e2                	ld	s1,56(sp)
   1082e:	7942                	ld	s2,48(sp)
   10830:	79a2                	ld	s3,40(sp)
   10832:	7a02                	ld	s4,32(sp)
   10834:	6ae2                	ld	s5,24(sp)
   10836:	6b42                	ld	s6,16(sp)
   10838:	6ba2                	ld	s7,8(sp)
   1083a:	6161                	addi	sp,sp,80
   1083c:	8082                	ret
   1083e:	000a0963          	beqz	s4,10850 <__call_exitprocs+0x5c>
   10842:	21093783          	ld	a5,528(s2)
   10846:	01478563          	beq	a5,s4,10850 <__call_exitprocs+0x5c>
   1084a:	34fd                	addiw	s1,s1,-1
   1084c:	1961                	addi	s2,s2,-8
   1084e:	bfd9                	j	10824 <__call_exitprocs+0x30>
   10850:	441c                	lw	a5,8(s0)
   10852:	01093683          	ld	a3,16(s2)
   10856:	37fd                	addiw	a5,a5,-1
   10858:	02979663          	bne	a5,s1,10884 <__call_exitprocs+0x90>
   1085c:	c404                	sw	s1,8(s0)
   1085e:	d6f5                	beqz	a3,1084a <__call_exitprocs+0x56>
   10860:	31042703          	lw	a4,784(s0)
   10864:	009b163b          	sllw	a2,s6,s1
   10868:	00842b83          	lw	s7,8(s0)
   1086c:	8f71                	and	a4,a4,a2
   1086e:	2701                	sext.w	a4,a4
   10870:	ef09                	bnez	a4,1088a <__call_exitprocs+0x96>
   10872:	9682                	jalr	a3
   10874:	4418                	lw	a4,8(s0)
   10876:	1f89b783          	ld	a5,504(s3)
   1087a:	f9771de3          	bne	a4,s7,10814 <__call_exitprocs+0x20>
   1087e:	fcf406e3          	beq	s0,a5,1084a <__call_exitprocs+0x56>
   10882:	bf49                	j	10814 <__call_exitprocs+0x20>
   10884:	00093823          	sd	zero,16(s2)
   10888:	bfd9                	j	1085e <__call_exitprocs+0x6a>
   1088a:	31442783          	lw	a5,788(s0)
   1088e:	11093583          	ld	a1,272(s2)
   10892:	8ff1                	and	a5,a5,a2
   10894:	2781                	sext.w	a5,a5
   10896:	e781                	bnez	a5,1089e <__call_exitprocs+0xaa>
   10898:	8556                	mv	a0,s5
   1089a:	9682                	jalr	a3
   1089c:	bfe1                	j	10874 <__call_exitprocs+0x80>
   1089e:	852e                	mv	a0,a1
   108a0:	9682                	jalr	a3
   108a2:	bfc9                	j	10874 <__call_exitprocs+0x80>
	...

00000000000108a6 <conv_stat>:
   108a6:	619c                	ld	a5,0(a1)
   108a8:	00f51023          	sh	a5,0(a0)
   108ac:	659c                	ld	a5,8(a1)
   108ae:	00f51123          	sh	a5,2(a0)
   108b2:	499c                	lw	a5,16(a1)
   108b4:	c15c                	sw	a5,4(a0)
   108b6:	49dc                	lw	a5,20(a1)
   108b8:	00f51423          	sh	a5,8(a0)
   108bc:	4d9c                	lw	a5,24(a1)
   108be:	00f51523          	sh	a5,10(a0)
   108c2:	4ddc                	lw	a5,28(a1)
   108c4:	00f51623          	sh	a5,12(a0)
   108c8:	719c                	ld	a5,32(a1)
   108ca:	00f51723          	sh	a5,14(a0)
   108ce:	799c                	ld	a5,48(a1)
   108d0:	e91c                	sd	a5,16(a0)
   108d2:	61bc                	ld	a5,64(a1)
   108d4:	e93c                	sd	a5,80(a0)
   108d6:	5d9c                	lw	a5,56(a1)
   108d8:	e53c                	sd	a5,72(a0)
   108da:	65bc                	ld	a5,72(a1)
   108dc:	ed1c                	sd	a5,24(a0)
   108de:	6dbc                	ld	a5,88(a1)
   108e0:	f51c                	sd	a5,40(a0)
   108e2:	75bc                	ld	a5,104(a1)
   108e4:	fd1c                	sd	a5,56(a0)
   108e6:	8082                	ret

00000000000108e8 <__syscall_error>:
   108e8:	1141                	addi	sp,sp,-16
   108ea:	e022                	sd	s0,0(sp)
   108ec:	e406                	sd	ra,8(sp)
   108ee:	842a                	mv	s0,a0
   108f0:	00000097          	auipc	ra,0x0
   108f4:	3bc080e7          	jalr	956(ra) # 10cac <__errno>
   108f8:	408007bb          	negw	a5,s0
   108fc:	60a2                	ld	ra,8(sp)
   108fe:	6402                	ld	s0,0(sp)
   10900:	c11c                	sw	a5,0(a0)
   10902:	557d                	li	a0,-1
   10904:	0141                	addi	sp,sp,16
   10906:	8082                	ret

0000000000010908 <__internal_syscall>:
   10908:	88aa                	mv	a7,a0
   1090a:	852e                	mv	a0,a1
   1090c:	85b2                	mv	a1,a2
   1090e:	8636                	mv	a2,a3
   10910:	86ba                	mv	a3,a4
   10912:	00000073          	ecall
   10916:	00055663          	bgez	a0,10922 <__internal_syscall+0x1a>
   1091a:	00000317          	auipc	t1,0x0
   1091e:	fce30067          	jr	-50(t1) # 108e8 <__syscall_error>
   10922:	8082                	ret

0000000000010924 <open>:
   10924:	1141                	addi	sp,sp,-16
   10926:	86b2                	mv	a3,a2
   10928:	4701                	li	a4,0
   1092a:	862e                	mv	a2,a1
   1092c:	85aa                	mv	a1,a0
   1092e:	40000513          	li	a0,1024
   10932:	e406                	sd	ra,8(sp)
   10934:	00000097          	auipc	ra,0x0
   10938:	fd4080e7          	jalr	-44(ra) # 10908 <__internal_syscall>
   1093c:	60a2                	ld	ra,8(sp)
   1093e:	2501                	sext.w	a0,a0
   10940:	0141                	addi	sp,sp,16
   10942:	8082                	ret

0000000000010944 <openat>:
   10944:	1141                	addi	sp,sp,-16
   10946:	8736                	mv	a4,a3
   10948:	86b2                	mv	a3,a2
   1094a:	862e                	mv	a2,a1
   1094c:	85aa                	mv	a1,a0
   1094e:	03800513          	li	a0,56
   10952:	e406                	sd	ra,8(sp)
   10954:	fb5ff0ef          	jal	ra,10908 <__internal_syscall>
   10958:	60a2                	ld	ra,8(sp)
   1095a:	2501                	sext.w	a0,a0
   1095c:	0141                	addi	sp,sp,16
   1095e:	8082                	ret

0000000000010960 <lseek>:
   10960:	86b2                	mv	a3,a2
   10962:	4701                	li	a4,0
   10964:	862e                	mv	a2,a1
   10966:	85aa                	mv	a1,a0
   10968:	03e00513          	li	a0,62
   1096c:	00000317          	auipc	t1,0x0
   10970:	f9c30067          	jr	-100(t1) # 10908 <__internal_syscall>

0000000000010974 <read>:
   10974:	86b2                	mv	a3,a2
   10976:	4701                	li	a4,0
   10978:	862e                	mv	a2,a1
   1097a:	85aa                	mv	a1,a0
   1097c:	03f00513          	li	a0,63
   10980:	f89ff06f          	j	10908 <__internal_syscall>

0000000000010984 <write>:
   10984:	86b2                	mv	a3,a2
   10986:	4701                	li	a4,0
   10988:	862e                	mv	a2,a1
   1098a:	85aa                	mv	a1,a0
   1098c:	04000513          	li	a0,64
   10990:	00000317          	auipc	t1,0x0
   10994:	f7830067          	jr	-136(t1) # 10908 <__internal_syscall>

0000000000010998 <fstat>:
   10998:	7135                	addi	sp,sp,-160
   1099a:	e526                	sd	s1,136(sp)
   1099c:	860a                	mv	a2,sp
   1099e:	84ae                	mv	s1,a1
   109a0:	4701                	li	a4,0
   109a2:	85aa                	mv	a1,a0
   109a4:	4681                	li	a3,0
   109a6:	05000513          	li	a0,80
   109aa:	ed06                	sd	ra,152(sp)
   109ac:	e922                	sd	s0,144(sp)
   109ae:	f5bff0ef          	jal	ra,10908 <__internal_syscall>
   109b2:	842a                	mv	s0,a0
   109b4:	858a                	mv	a1,sp
   109b6:	8526                	mv	a0,s1
   109b8:	eefff0ef          	jal	ra,108a6 <conv_stat>
   109bc:	0004051b          	sext.w	a0,s0
   109c0:	60ea                	ld	ra,152(sp)
   109c2:	644a                	ld	s0,144(sp)
   109c4:	64aa                	ld	s1,136(sp)
   109c6:	610d                	addi	sp,sp,160
   109c8:	8082                	ret

00000000000109ca <stat>:
   109ca:	7135                	addi	sp,sp,-160
   109cc:	e526                	sd	s1,136(sp)
   109ce:	860a                	mv	a2,sp
   109d0:	84ae                	mv	s1,a1
   109d2:	4701                	li	a4,0
   109d4:	85aa                	mv	a1,a0
   109d6:	4681                	li	a3,0
   109d8:	40e00513          	li	a0,1038
   109dc:	ed06                	sd	ra,152(sp)
   109de:	e922                	sd	s0,144(sp)
   109e0:	00000097          	auipc	ra,0x0
   109e4:	f28080e7          	jalr	-216(ra) # 10908 <__internal_syscall>
   109e8:	842a                	mv	s0,a0
   109ea:	858a                	mv	a1,sp
   109ec:	8526                	mv	a0,s1
   109ee:	00000097          	auipc	ra,0x0
   109f2:	eb8080e7          	jalr	-328(ra) # 108a6 <conv_stat>
   109f6:	0004051b          	sext.w	a0,s0
   109fa:	60ea                	ld	ra,152(sp)
   109fc:	644a                	ld	s0,144(sp)
   109fe:	64aa                	ld	s1,136(sp)
   10a00:	610d                	addi	sp,sp,160
   10a02:	8082                	ret

0000000000010a04 <lstat>:
   10a04:	7135                	addi	sp,sp,-160
   10a06:	e526                	sd	s1,136(sp)
   10a08:	860a                	mv	a2,sp
   10a0a:	84ae                	mv	s1,a1
   10a0c:	4701                	li	a4,0
   10a0e:	85aa                	mv	a1,a0
   10a10:	4681                	li	a3,0
   10a12:	40f00513          	li	a0,1039
   10a16:	ed06                	sd	ra,152(sp)
   10a18:	e922                	sd	s0,144(sp)
   10a1a:	eefff0ef          	jal	ra,10908 <__internal_syscall>
   10a1e:	842a                	mv	s0,a0
   10a20:	858a                	mv	a1,sp
   10a22:	8526                	mv	a0,s1
   10a24:	e83ff0ef          	jal	ra,108a6 <conv_stat>
   10a28:	0004051b          	sext.w	a0,s0
   10a2c:	60ea                	ld	ra,152(sp)
   10a2e:	644a                	ld	s0,144(sp)
   10a30:	64aa                	ld	s1,136(sp)
   10a32:	610d                	addi	sp,sp,160
   10a34:	8082                	ret

0000000000010a36 <fstatat>:
   10a36:	7135                	addi	sp,sp,-160
   10a38:	e526                	sd	s1,136(sp)
   10a3a:	8736                	mv	a4,a3
   10a3c:	84b2                	mv	s1,a2
   10a3e:	868a                	mv	a3,sp
   10a40:	862e                	mv	a2,a1
   10a42:	85aa                	mv	a1,a0
   10a44:	04f00513          	li	a0,79
   10a48:	ed06                	sd	ra,152(sp)
   10a4a:	e922                	sd	s0,144(sp)
   10a4c:	00000097          	auipc	ra,0x0
   10a50:	ebc080e7          	jalr	-324(ra) # 10908 <__internal_syscall>
   10a54:	842a                	mv	s0,a0
   10a56:	858a                	mv	a1,sp
   10a58:	8526                	mv	a0,s1
   10a5a:	00000097          	auipc	ra,0x0
   10a5e:	e4c080e7          	jalr	-436(ra) # 108a6 <conv_stat>
   10a62:	0004051b          	sext.w	a0,s0
   10a66:	60ea                	ld	ra,152(sp)
   10a68:	644a                	ld	s0,144(sp)
   10a6a:	64aa                	ld	s1,136(sp)
   10a6c:	610d                	addi	sp,sp,160
   10a6e:	8082                	ret

0000000000010a70 <access>:
   10a70:	1141                	addi	sp,sp,-16
   10a72:	862e                	mv	a2,a1
   10a74:	4701                	li	a4,0
   10a76:	85aa                	mv	a1,a0
   10a78:	4681                	li	a3,0
   10a7a:	40900513          	li	a0,1033
   10a7e:	e406                	sd	ra,8(sp)
   10a80:	e89ff0ef          	jal	ra,10908 <__internal_syscall>
   10a84:	60a2                	ld	ra,8(sp)
   10a86:	2501                	sext.w	a0,a0
   10a88:	0141                	addi	sp,sp,16
   10a8a:	8082                	ret

0000000000010a8c <faccessat>:
   10a8c:	1141                	addi	sp,sp,-16
   10a8e:	8736                	mv	a4,a3
   10a90:	86b2                	mv	a3,a2
   10a92:	862e                	mv	a2,a1
   10a94:	85aa                	mv	a1,a0
   10a96:	03000513          	li	a0,48
   10a9a:	e406                	sd	ra,8(sp)
   10a9c:	00000097          	auipc	ra,0x0
   10aa0:	e6c080e7          	jalr	-404(ra) # 10908 <__internal_syscall>
   10aa4:	60a2                	ld	ra,8(sp)
   10aa6:	2501                	sext.w	a0,a0
   10aa8:	0141                	addi	sp,sp,16
   10aaa:	8082                	ret

0000000000010aac <close>:
   10aac:	1141                	addi	sp,sp,-16
   10aae:	85aa                	mv	a1,a0
   10ab0:	4701                	li	a4,0
   10ab2:	4681                	li	a3,0
   10ab4:	4601                	li	a2,0
   10ab6:	03900513          	li	a0,57
   10aba:	e406                	sd	ra,8(sp)
   10abc:	e4dff0ef          	jal	ra,10908 <__internal_syscall>
   10ac0:	60a2                	ld	ra,8(sp)
   10ac2:	2501                	sext.w	a0,a0
   10ac4:	0141                	addi	sp,sp,16
   10ac6:	8082                	ret

0000000000010ac8 <link>:
   10ac8:	1141                	addi	sp,sp,-16
   10aca:	862e                	mv	a2,a1
   10acc:	4701                	li	a4,0
   10ace:	85aa                	mv	a1,a0
   10ad0:	4681                	li	a3,0
   10ad2:	40100513          	li	a0,1025
   10ad6:	e406                	sd	ra,8(sp)
   10ad8:	00000097          	auipc	ra,0x0
   10adc:	e30080e7          	jalr	-464(ra) # 10908 <__internal_syscall>
   10ae0:	60a2                	ld	ra,8(sp)
   10ae2:	2501                	sext.w	a0,a0
   10ae4:	0141                	addi	sp,sp,16
   10ae6:	8082                	ret

0000000000010ae8 <unlink>:
   10ae8:	1141                	addi	sp,sp,-16
   10aea:	85aa                	mv	a1,a0
   10aec:	4701                	li	a4,0
   10aee:	4681                	li	a3,0
   10af0:	4601                	li	a2,0
   10af2:	40200513          	li	a0,1026
   10af6:	e406                	sd	ra,8(sp)
   10af8:	e11ff0ef          	jal	ra,10908 <__internal_syscall>
   10afc:	60a2                	ld	ra,8(sp)
   10afe:	2501                	sext.w	a0,a0
   10b00:	0141                	addi	sp,sp,16
   10b02:	8082                	ret

0000000000010b04 <execve>:
   10b04:	1141                	addi	sp,sp,-16
   10b06:	e406                	sd	ra,8(sp)
   10b08:	00000097          	auipc	ra,0x0
   10b0c:	1a4080e7          	jalr	420(ra) # 10cac <__errno>
   10b10:	60a2                	ld	ra,8(sp)
   10b12:	47b1                	li	a5,12
   10b14:	c11c                	sw	a5,0(a0)
   10b16:	557d                	li	a0,-1
   10b18:	0141                	addi	sp,sp,16
   10b1a:	8082                	ret

0000000000010b1c <fork>:
   10b1c:	1141                	addi	sp,sp,-16
   10b1e:	e406                	sd	ra,8(sp)
   10b20:	18c000ef          	jal	ra,10cac <__errno>
   10b24:	60a2                	ld	ra,8(sp)
   10b26:	47ad                	li	a5,11
   10b28:	c11c                	sw	a5,0(a0)
   10b2a:	557d                	li	a0,-1
   10b2c:	0141                	addi	sp,sp,16
   10b2e:	8082                	ret

0000000000010b30 <getpid>:
   10b30:	4505                	li	a0,1
   10b32:	8082                	ret

0000000000010b34 <kill>:
   10b34:	1141                	addi	sp,sp,-16
   10b36:	e406                	sd	ra,8(sp)
   10b38:	174000ef          	jal	ra,10cac <__errno>
   10b3c:	60a2                	ld	ra,8(sp)
   10b3e:	47d9                	li	a5,22
   10b40:	c11c                	sw	a5,0(a0)
   10b42:	557d                	li	a0,-1
   10b44:	0141                	addi	sp,sp,16
   10b46:	8082                	ret

0000000000010b48 <wait>:
   10b48:	1141                	addi	sp,sp,-16
   10b4a:	e406                	sd	ra,8(sp)
   10b4c:	00000097          	auipc	ra,0x0
   10b50:	160080e7          	jalr	352(ra) # 10cac <__errno>
   10b54:	60a2                	ld	ra,8(sp)
   10b56:	47a9                	li	a5,10
   10b58:	c11c                	sw	a5,0(a0)
   10b5a:	557d                	li	a0,-1
   10b5c:	0141                	addi	sp,sp,16
   10b5e:	8082                	ret

0000000000010b60 <isatty>:
   10b60:	7119                	addi	sp,sp,-128
   10b62:	002c                	addi	a1,sp,8
   10b64:	fc86                	sd	ra,120(sp)
   10b66:	e33ff0ef          	jal	ra,10998 <fstat>
   10b6a:	57fd                	li	a5,-1
   10b6c:	00f50663          	beq	a0,a5,10b78 <isatty+0x18>
   10b70:	4532                	lw	a0,12(sp)
   10b72:	40d5551b          	sraiw	a0,a0,0xd
   10b76:	8905                	andi	a0,a0,1
   10b78:	70e6                	ld	ra,120(sp)
   10b7a:	6109                	addi	sp,sp,128
   10b7c:	8082                	ret

0000000000010b7e <gettimeofday>:
   10b7e:	1141                	addi	sp,sp,-16
   10b80:	85aa                	mv	a1,a0
   10b82:	4701                	li	a4,0
   10b84:	4681                	li	a3,0
   10b86:	4601                	li	a2,0
   10b88:	0a900513          	li	a0,169
   10b8c:	e406                	sd	ra,8(sp)
   10b8e:	00000097          	auipc	ra,0x0
   10b92:	d7a080e7          	jalr	-646(ra) # 10908 <__internal_syscall>
   10b96:	60a2                	ld	ra,8(sp)
   10b98:	2501                	sext.w	a0,a0
   10b9a:	0141                	addi	sp,sp,16
   10b9c:	8082                	ret

0000000000010b9e <times>:
   10b9e:	7179                	addi	sp,sp,-48
   10ba0:	f022                	sd	s0,32(sp)
   10ba2:	842a                	mv	s0,a0
   10ba4:	6561                	lui	a0,0x18
   10ba6:	fa853783          	ld	a5,-88(a0) # 17fa8 <t0.2574>
   10baa:	ec26                	sd	s1,24(sp)
   10bac:	f406                	sd	ra,40(sp)
   10bae:	fa850493          	addi	s1,a0,-88
   10bb2:	eb81                	bnez	a5,10bc2 <times+0x24>
   10bb4:	4581                	li	a1,0
   10bb6:	fa850513          	addi	a0,a0,-88
   10bba:	00000097          	auipc	ra,0x0
   10bbe:	fc4080e7          	jalr	-60(ra) # 10b7e <gettimeofday>
   10bc2:	850a                	mv	a0,sp
   10bc4:	4581                	li	a1,0
   10bc6:	00000097          	auipc	ra,0x0
   10bca:	fb8080e7          	jalr	-72(ra) # 10b7e <gettimeofday>
   10bce:	6098                	ld	a4,0(s1)
   10bd0:	6782                	ld	a5,0(sp)
   10bd2:	6494                	ld	a3,8(s1)
   10bd4:	00043823          	sd	zero,16(s0)
   10bd8:	8f99                	sub	a5,a5,a4
   10bda:	000f4737          	lui	a4,0xf4
   10bde:	24070713          	addi	a4,a4,576 # f4240 <_end+0xdc288>
   10be2:	02e787b3          	mul	a5,a5,a4
   10be6:	6722                	ld	a4,8(sp)
   10be8:	00043c23          	sd	zero,24(s0)
   10bec:	00043423          	sd	zero,8(s0)
   10bf0:	8f15                	sub	a4,a4,a3
   10bf2:	70a2                	ld	ra,40(sp)
   10bf4:	64e2                	ld	s1,24(sp)
   10bf6:	557d                	li	a0,-1
   10bf8:	97ba                	add	a5,a5,a4
   10bfa:	e01c                	sd	a5,0(s0)
   10bfc:	7402                	ld	s0,32(sp)
   10bfe:	6145                	addi	sp,sp,48
   10c00:	8082                	ret

0000000000010c02 <ftime>:
   10c02:	00051423          	sh	zero,8(a0)
   10c06:	00053023          	sd	zero,0(a0)
   10c0a:	4501                	li	a0,0
   10c0c:	8082                	ret

0000000000010c0e <utime>:
   10c0e:	557d                	li	a0,-1
   10c10:	8082                	ret

0000000000010c12 <chown>:
   10c12:	557d                	li	a0,-1
   10c14:	8082                	ret

0000000000010c16 <chmod>:
   10c16:	557d                	li	a0,-1
   10c18:	8082                	ret

0000000000010c1a <chdir>:
   10c1a:	557d                	li	a0,-1
   10c1c:	8082                	ret

0000000000010c1e <getcwd>:
   10c1e:	4501                	li	a0,0
   10c20:	8082                	ret

0000000000010c22 <sysconf>:
   10c22:	4789                	li	a5,2
   10c24:	00f50463          	beq	a0,a5,10c2c <sysconf+0xa>
   10c28:	557d                	li	a0,-1
   10c2a:	8082                	ret
   10c2c:	000f4537          	lui	a0,0xf4
   10c30:	24050513          	addi	a0,a0,576 # f4240 <_end+0xdc288>
   10c34:	8082                	ret

0000000000010c36 <sbrk>:
   10c36:	1101                	addi	sp,sp,-32
   10c38:	e822                	sd	s0,16(sp)
   10c3a:	8181b783          	ld	a5,-2024(gp) # 16be0 <_edata>
   10c3e:	e426                	sd	s1,8(sp)
   10c40:	ec06                	sd	ra,24(sp)
   10c42:	84aa                	mv	s1,a0
   10c44:	e785                	bnez	a5,10c6c <sbrk+0x36>
   10c46:	4701                	li	a4,0
   10c48:	4681                	li	a3,0
   10c4a:	4601                	li	a2,0
   10c4c:	4581                	li	a1,0
   10c4e:	0d600513          	li	a0,214
   10c52:	cb7ff0ef          	jal	ra,10908 <__internal_syscall>
   10c56:	57fd                	li	a5,-1
   10c58:	00f51863          	bne	a0,a5,10c68 <sbrk+0x32>
   10c5c:	557d                	li	a0,-1
   10c5e:	60e2                	ld	ra,24(sp)
   10c60:	6442                	ld	s0,16(sp)
   10c62:	64a2                	ld	s1,8(sp)
   10c64:	6105                	addi	sp,sp,32
   10c66:	8082                	ret
   10c68:	80a1bc23          	sd	a0,-2024(gp) # 16be0 <_edata>
   10c6c:	8181b583          	ld	a1,-2024(gp) # 16be0 <_edata>
   10c70:	4701                	li	a4,0
   10c72:	4681                	li	a3,0
   10c74:	95a6                	add	a1,a1,s1
   10c76:	4601                	li	a2,0
   10c78:	0d600513          	li	a0,214
   10c7c:	c8dff0ef          	jal	ra,10908 <__internal_syscall>
   10c80:	8181b783          	ld	a5,-2024(gp) # 16be0 <_edata>
   10c84:	94be                	add	s1,s1,a5
   10c86:	fc951be3          	bne	a0,s1,10c5c <sbrk+0x26>
   10c8a:	80a1bc23          	sd	a0,-2024(gp) # 16be0 <_edata>
   10c8e:	853e                	mv	a0,a5
   10c90:	b7f9                	j	10c5e <sbrk+0x28>

0000000000010c92 <_exit>:
   10c92:	1141                	addi	sp,sp,-16
   10c94:	85aa                	mv	a1,a0
   10c96:	4701                	li	a4,0
   10c98:	4681                	li	a3,0
   10c9a:	4601                	li	a2,0
   10c9c:	05d00513          	li	a0,93
   10ca0:	e406                	sd	ra,8(sp)
   10ca2:	00000097          	auipc	ra,0x0
   10ca6:	c66080e7          	jalr	-922(ra) # 10908 <__internal_syscall>
   10caa:	a001                	j	10caa <_exit+0x18>

0000000000010cac <__errno>:
   10cac:	8101b503          	ld	a0,-2032(gp) # 16bd8 <_impure_ptr>
   10cb0:	8082                	ret
	...
